; Function Attrs: nounwind sspstrong uwtable
define dso_local nonnull ptr @riscv_get_misa_ext_description(i32 noundef %bit) local_unnamed_addr #3 {
entry:
  %cmp.not.i = icmp eq i32 %bit, 0
  br i1 %cmp.not.i, label %if.else.i, label %do.end.i

if.else.i:                                        ; preds = %entry
  tail call void @g_assertion_message_expr(ptr noundef null, ptr noundef nonnull @.str.218, i32 noundef 1267, ptr noundef nonnull @__func__.riscv_validate_misa_info_idx, ptr noundef nonnull @.str.283) #15
  unreachable

do.end.i:                                         ; preds = %entry
  %0 = tail call range(i32 0, 33) i32 @llvm.cttz.i32(i32 %bit, i1 true)
  %cmp2.i = icmp samesign ult i32 %0, 22
  br i1 %cmp2.i, label %riscv_validate_misa_info_idx.exit, label %if.else5.i

if.else5.i:                                       ; preds = %do.end.i
  tail call void @g_assertion_message_expr(ptr noundef null, ptr noundef nonnull @.str.218, i32 noundef 1270, ptr noundef nonnull @__func__.riscv_validate_misa_info_idx, ptr noundef nonnull @.str.284) #15
  unreachable

riscv_validate_misa_info_idx.exit:                ; preds = %do.end.i
  %idxprom = zext nneg i32 %0 to i64
  %1 = shl nuw nsw i64 1, %idxprom
  %2 = and i64 %1, 781314
  %cmp.not.not = icmp eq i64 %2, 0
  br i1 %cmp.not.not, label %do.end, label %if.else

if.else:                                          ; preds = %riscv_validate_misa_info_idx.exit
  tail call void @g_assertion_message_expr(ptr noundef null, ptr noundef nonnull @.str.218, i32 noundef 1288, ptr noundef nonnull @__func__.riscv_get_misa_ext_description, ptr noundef nonnull @.str.220) #15
  unreachable

do.end:                                           ; preds = %riscv_validate_misa_info_idx.exit
  %description = getelementptr [22 x %struct.misa_ext_info], ptr @misa_ext_info_arr, i64 0, i64 %idxprom, i32 1
  %3 = load ptr, ptr %description, align 8
  ret ptr %3
}